target datalayout = "e-m:e-p270:32:32-p271:32:32-p272:64:64-i64:64-i128:128-f80:128-n8:16:32:64-S128"
target triple = "x86_64-pc-linux-gnu"

%struct.nstime_t = type { i64, i32 }
%struct._frame_data = type { i32, i32, i32, i32, i64, ptr, ptr, ptr, i16, i16, %struct.nstime_t, %struct.nstime_t, i32, i32, i8 }
%struct.tm = type { i32, i32, i32, i32, i32, i32, i32, i32, i32, i64, ptr }

@.str.1 = private unnamed_addr constant [1 x i8] zeroinitializer, align 1
@.str.7 = private unnamed_addr constant [20 x i8] c"epan/column-utils.c\00", align 1
@.str.9 = private unnamed_addr constant [31 x i8] c"assertion \22not reached\22 failed\00", align 1
@.str.20 = private unnamed_addr constant [18 x i8] c"Not representable\00", align 1
@.str.22 = private unnamed_addr constant [18 x i8] c"snprintf() failed\00", align 1
@__func__.get_frame_timestamp_precision = private unnamed_addr constant [30 x i8] c"get_frame_timestamp_precision\00", align 1
@.str.23 = private unnamed_addr constant [25 x i8] c"%04d/%03d %02d:%02d:%02d\00", align 1

; Function Attrs: nounwind uwtable
define internal i32 @get_frame_timestamp_precision(ptr noundef %0) #0 {
  %2 = alloca ptr, align 8
  %3 = alloca i32, align 4
  store ptr %0, ptr %2, align 8
  %4 = call i32 @timestamp_get_precision()
  store i32 %4, ptr %3, align 4
  %5 = load i32, ptr %3, align 4
  %6 = icmp eq i32 %5, -1
  br i1 %6, label %7, label %14

7:                                                ; preds = %1
  %8 = load ptr, ptr %2, align 8
  %9 = getelementptr inbounds %struct._frame_data, ptr %8, i32 0, i32 9
  %10 = load i16, ptr %9, align 2
  %11 = lshr i16 %10, 10
  %12 = and i16 %11, 15
  %13 = zext i16 %12 to i32
  store i32 %13, ptr %3, align 4
  br label %19

14:                                               ; preds = %1
  %15 = load i32, ptr %3, align 4
  %16 = icmp slt i32 %15, 0
  br i1 %16, label %17, label %18

17:                                               ; preds = %14
  call void (ptr, i32, ptr, i64, ptr, ptr, ...) @ws_log_fatal_full(ptr noundef @.str.1, i32 noundef 7, ptr noundef @.str.7, i64 noundef 984, ptr noundef @__func__.get_frame_timestamp_precision, ptr noundef @.str.9) #10
  unreachable

18:                                               ; preds = %14
  br label %19

19:                                               ; preds = %18, %7
  %20 = load i32, ptr %3, align 4
  %21 = icmp sgt i32 %20, 9
  br i1 %21, label %22, label %23

22:                                               ; preds = %19
  store i32 9, ptr %3, align 4
  br label %23

23:                                               ; preds = %22, %19
  %24 = load i32, ptr %3, align 4
  ret i32 %24
}

; Function Attrs: nounwind uwtable
define internal void @set_abs_ydoy_time(ptr noundef %0, ptr noundef %1, ptr noundef %2, i32 noundef %3) #0 {
  %5 = alloca ptr, align 8
  %6 = alloca ptr, align 8
  %7 = alloca ptr, align 8
  %8 = alloca i32, align 4
  %9 = alloca %struct.tm, align 8
  %10 = alloca ptr, align 8
  %11 = alloca ptr, align 8
  %12 = alloca i64, align 8
  %13 = alloca i32, align 4
  %14 = alloca i32, align 4
  store ptr %0, ptr %5, align 8
  store ptr %1, ptr %6, align 8
  store ptr %2, ptr %7, align 8
  store i32 %3, ptr %8, align 4
  %15 = load ptr, ptr %5, align 8
  %16 = getelementptr inbounds %struct._frame_data, ptr %15, i32 0, i32 9
  %17 = load i16, ptr %16, align 2
  %18 = lshr i16 %17, 7
  %19 = and i16 %18, 1
  %20 = zext i16 %19 to i32
  %21 = icmp ne i32 %20, 0
  br i1 %21, label %25, label %22

22:                                               ; preds = %4
  %23 = load ptr, ptr %6, align 8
  %24 = getelementptr i8, ptr %23, i64 0
  store i8 0, ptr %24, align 1
  br label %101

25:                                               ; preds = %4
  %26 = load i32, ptr %8, align 4
  %27 = icmp ne i32 %26, 0
  br i1 %27, label %28, label %33

28:                                               ; preds = %25
  %29 = load ptr, ptr %5, align 8
  %30 = getelementptr inbounds %struct._frame_data, ptr %29, i32 0, i32 10
  %31 = getelementptr inbounds %struct.nstime_t, ptr %30, i32 0, i32 0
  %32 = call ptr @ws_localtime_r(ptr noundef %31, ptr noundef %9)
  store ptr %32, ptr %10, align 8
  br label %38

33:                                               ; preds = %25
  %34 = load ptr, ptr %5, align 8
  %35 = getelementptr inbounds %struct._frame_data, ptr %34, i32 0, i32 10
  %36 = getelementptr inbounds %struct.nstime_t, ptr %35, i32 0, i32 0
  %37 = call ptr @ws_gmtime_r(ptr noundef %36, ptr noundef %9)
  store ptr %37, ptr %10, align 8
  br label %38

38:                                               ; preds = %33, %28
  %39 = load ptr, ptr %10, align 8
  %40 = icmp eq ptr %39, null
  br i1 %40, label %41, label %44

41:                                               ; preds = %38
  %42 = load ptr, ptr %6, align 8
  %43 = call i32 (ptr, i64, ptr, ...) @snprintf(ptr noundef %42, i64 noundef 2048, ptr noundef @.str.20) #7
  br label %101

44:                                               ; preds = %38
  %45 = load ptr, ptr %6, align 8
  store ptr %45, ptr %11, align 8
  store i64 2048, ptr %12, align 8
  %46 = load ptr, ptr %11, align 8
  %47 = load i64, ptr %12, align 8
  %48 = load ptr, ptr %10, align 8
  %49 = getelementptr inbounds %struct.tm, ptr %48, i32 0, i32 5
  %50 = load i32, ptr %49, align 4
  %51 = add i32 %50, 1900
  %52 = load ptr, ptr %10, align 8
  %53 = getelementptr inbounds %struct.tm, ptr %52, i32 0, i32 7
  %54 = load i32, ptr %53, align 4
  %55 = add i32 %54, 1
  %56 = load ptr, ptr %10, align 8
  %57 = getelementptr inbounds %struct.tm, ptr %56, i32 0, i32 2
  %58 = load i32, ptr %57, align 8
  %59 = load ptr, ptr %10, align 8
  %60 = getelementptr inbounds %struct.tm, ptr %59, i32 0, i32 1
  %61 = load i32, ptr %60, align 4
  %62 = load ptr, ptr %10, align 8
  %63 = getelementptr inbounds %struct.tm, ptr %62, i32 0, i32 0
  %64 = load i32, ptr %63, align 8
  %65 = call i32 (ptr, i64, ptr, ...) @snprintf(ptr noundef %46, i64 noundef %47, ptr noundef @.str.23, i32 noundef %51, i32 noundef %55, i32 noundef %58, i32 noundef %61, i32 noundef %64) #7
  store i32 %65, ptr %13, align 4
  %66 = load i32, ptr %13, align 4
  %67 = icmp slt i32 %66, 0
  br i1 %67, label %68, label %72

68:                                               ; preds = %44
  %69 = load ptr, ptr %11, align 8
  %70 = load i64, ptr %12, align 8
  %71 = call i32 (ptr, i64, ptr, ...) @snprintf(ptr noundef %69, i64 noundef %70, ptr noundef @.str.22) #7
  br label %101

72:                                               ; preds = %44
  %73 = load i32, ptr %13, align 4
  %74 = zext i32 %73 to i64
  %75 = load i64, ptr %12, align 8
  %76 = icmp uge i64 %74, %75
  br i1 %76, label %77, label %78

77:                                               ; preds = %72
  br label %101

78:                                               ; preds = %72
  %79 = load i32, ptr %13, align 4
  %80 = load ptr, ptr %11, align 8
  %81 = sext i32 %79 to i64
  %82 = getelementptr i8, ptr %80, i64 %81
  store ptr %82, ptr %11, align 8
  %83 = load i32, ptr %13, align 4
  %84 = sext i32 %83 to i64
  %85 = load i64, ptr %12, align 8
  %86 = sub i64 %85, %84
  store i64 %86, ptr %12, align 8
  %87 = load ptr, ptr %5, align 8
  %88 = call i32 @get_frame_timestamp_precision(ptr noundef %87)
  store i32 %88, ptr %14, align 4
  %89 = load i32, ptr %14, align 4
  %90 = icmp ne i32 %89, 0
  br i1 %90, label %91, label %101

91:                                               ; preds = %78
  %92 = load ptr, ptr %11, align 8
  %93 = load i64, ptr %12, align 8
  %94 = load ptr, ptr %5, align 8
  %95 = getelementptr inbounds %struct._frame_data, ptr %94, i32 0, i32 10
  %96 = getelementptr inbounds %struct.nstime_t, ptr %95, i32 0, i32 1
  %97 = load i32, ptr %96, align 8
  %98 = load ptr, ptr %7, align 8
  %99 = load i32, ptr %14, align 4
  %100 = call i32 @format_fractional_part_nsecs(ptr noundef %92, i64 noundef %93, i32 noundef %97, ptr noundef %98, i32 noundef %99)
  br label %101

101:                                              ; preds = %91, %78, %77, %68, %41, %22
  ret void
}