; Function Attrs: nounwind uwtable
define internal fastcc void @set_abs_ydoy_time(ptr noundef %0, ptr noundef %1, ptr noundef %2, i32 noundef range(i32 0, 2) %3) unnamed_addr #0 {
  %5 = alloca %struct.tm, align 8
  %6 = getelementptr inbounds nuw i8, ptr %0, i64 50
  %7 = load i16, ptr %6, align 2
  %8 = and i16 %7, 128
  %.not = icmp eq i16 %8, 0
  br i1 %.not, label %9, label %10

9:                                                ; preds = %4
  store i8 0, ptr %1, align 1
  br label %54

10:                                               ; preds = %4
  %.not32 = icmp eq i32 %3, 0
  %11 = getelementptr inbounds nuw i8, ptr %0, i64 56
  br i1 %.not32, label %14, label %12

12:                                               ; preds = %10
  %13 = call ptr @ws_localtime_r(ptr noundef nonnull %11, ptr noundef nonnull %5) #16
  br label %16

14:                                               ; preds = %10
  %15 = call ptr @ws_gmtime_r(ptr noundef nonnull %11, ptr noundef nonnull %5) #16
  br label %16

16:                                               ; preds = %14, %12
  %.0 = phi ptr [ %13, %12 ], [ %15, %14 ]
  %17 = icmp eq ptr %.0, null
  br i1 %17, label %18, label %19

18:                                               ; preds = %16
  call void @llvm.memcpy.p0.p0.i64(ptr noundef nonnull align 1 dereferenceable(18) %1, ptr noundef nonnull align 1 dereferenceable(18) @.str.20, i64 18, i1 false)
  br label %54

19:                                               ; preds = %16
  %20 = getelementptr inbounds nuw i8, ptr %.0, i64 20
  %21 = load i32, ptr %20, align 4
  %22 = add i32 %21, 1900
  %23 = getelementptr inbounds nuw i8, ptr %.0, i64 28
  %24 = load i32, ptr %23, align 4
  %25 = add i32 %24, 1
  %26 = getelementptr inbounds nuw i8, ptr %.0, i64 8
  %27 = load i32, ptr %26, align 8
  %28 = getelementptr inbounds nuw i8, ptr %.0, i64 4
  %29 = load i32, ptr %28, align 4
  %30 = load i32, ptr %.0, align 8
  %31 = call i32 (ptr, i64, ptr, ...) @snprintf(ptr noundef nonnull dereferenceable(1) %1, i64 noundef 2048, ptr noundef nonnull @.str.23, i32 noundef %22, i32 noundef %25, i32 noundef %27, i32 noundef %29, i32 noundef %30) #16
  %32 = icmp slt i32 %31, 0
  br i1 %32, label %33, label %34

33:                                               ; preds = %19
  call void @llvm.memcpy.p0.p0.i64(ptr noundef nonnull align 1 dereferenceable(18) %1, ptr noundef nonnull align 1 dereferenceable(18) @.str.22, i64 18, i1 false)
  br label %54

34:                                               ; preds = %19
  %35 = icmp samesign ugt i32 %31, 2047
  br i1 %35, label %54, label %36

36:                                               ; preds = %34
  %37 = call i32 @timestamp_get_precision() #16
  %38 = icmp eq i32 %37, -1
  br i1 %38, label %39, label %44

39:                                               ; preds = %36
  %40 = load i16, ptr %6, align 2
  %41 = lshr i16 %40, 10
  %42 = and i16 %41, 15
  %43 = zext nneg i16 %42 to i32
  br label %get_frame_timestamp_precision.exit

44:                                               ; preds = %36
  %45 = icmp slt i32 %37, 0
  br i1 %45, label %46, label %get_frame_timestamp_precision.exit

46:                                               ; preds = %44
  call void (ptr, i32, ptr, i64, ptr, ptr, ...) @ws_log_fatal_full(ptr noundef nonnull @.str.1, i32 noundef 7, ptr noundef nonnull @.str.7, i64 noundef 984, ptr noundef nonnull @__func__.get_frame_timestamp_precision, ptr noundef nonnull @.str.9) #19
  unreachable

get_frame_timestamp_precision.exit:               ; preds = %39, %44
  %.0.i = phi i32 [ %43, %39 ], [ %37, %44 ]
  %.not33 = icmp eq i32 %.0.i, 0
  br i1 %.not33, label %54, label %47

47:                                               ; preds = %get_frame_timestamp_precision.exit
  %spec.store.select.i = call range(i32 0, 10) i32 @llvm.umin.i32(i32 %.0.i, i32 9)
  %48 = zext nneg i32 %31 to i64
  %49 = sub nuw nsw i64 2048, %48
  %50 = getelementptr i8, ptr %1, i64 %48
  %51 = getelementptr inbounds nuw i8, ptr %0, i64 64
  %52 = load i32, ptr %51, align 8
  %53 = call i32 @format_fractional_part_nsecs(ptr noundef %50, i64 noundef %49, i32 noundef %52, ptr noundef %2, i32 noundef %spec.store.select.i) #16
  br label %54

54:                                               ; preds = %34, %47, %get_frame_timestamp_precision.exit, %33, %18, %9
  ret void
}